target datalayout = "e-m:e-p270:32:32-p271:32:32-p272:64:64-i64:64-i128:128-f80:128-n8:16:32:64-S128"
target triple = "x86_64-pc-linux-gnu"

%struct.StringSlice_ = type { ptr, i64 }

; Function Attrs: nounwind uwtable
define internal zeroext i1 @slice_strcmp(ptr %0, i64 %1, ptr noundef %2) #0 {
  %4 = alloca i1, align 1
  %5 = alloca %struct.StringSlice_, align 8
  %6 = alloca ptr, align 8
  %7 = getelementptr inbounds { ptr, i64 }, ptr %5, i32 0, i32 0
  store ptr %0, ptr %7, align 8
  %8 = getelementptr inbounds { ptr, i64 }, ptr %5, i32 0, i32 1
  store i64 %1, ptr %8, align 8
  store ptr %2, ptr %6, align 8
  %9 = load ptr, ptr %6, align 8
  %10 = call i64 @strlen(ptr noundef %9) #9
  %11 = getelementptr inbounds %struct.StringSlice_, ptr %5, i32 0, i32 1
  %12 = load i64, ptr %11, align 8
  %13 = icmp ne i64 %10, %12
  br i1 %13, label %14, label %15

14:                                               ; preds = %3
  store i1 false, ptr %4, align 1
  br label %23

15:                                               ; preds = %3
  %16 = getelementptr inbounds %struct.StringSlice_, ptr %5, i32 0, i32 0
  %17 = load ptr, ptr %16, align 8
  %18 = load ptr, ptr %6, align 8
  %19 = getelementptr inbounds %struct.StringSlice_, ptr %5, i32 0, i32 1
  %20 = load i64, ptr %19, align 8
  %21 = call i32 @strncmp(ptr noundef %17, ptr noundef %18, i64 noundef %20) #9
  %22 = icmp eq i32 %21, 0
  store i1 %22, ptr %4, align 1
  br label %23

23:                                               ; preds = %15, %14
  %24 = load i1, ptr %4, align 1
  ret i1 %24
}