; Function Attrs: mustprogress nofree nounwind willreturn memory(argmem: read) uwtable
define internal fastcc zeroext i1 @slice_strcmp(ptr nocapture readonly %0, i64 %1, ptr nocapture noundef readonly %2) unnamed_addr #9 {
  %4 = tail call i64 @strlen(ptr noundef nonnull dereferenceable(1) %2) #18
  %.not = icmp eq i64 %4, %1
  br i1 %.not, label %5, label %8

5:                                                ; preds = %3
  %6 = tail call i32 @strncmp(ptr noundef %0, ptr noundef %2, i64 noundef %1) #18
  %7 = icmp eq i32 %6, 0
  br label %8

8:                                                ; preds = %3, %5
  %.0 = phi i1 [ %7, %5 ], [ false, %3 ]
  ret i1 %.0
}